; Function Attrs: nounwind uwtable
define internal ptr @bytes_fromstringandsize(ptr readnone captures(none) %0, ptr noundef %1) #0 {
  %3 = alloca ptr, align 8
  %4 = alloca i64, align 8
  %5 = alloca i64, align 8
  call void @llvm.lifetime.start.p0(i64 8, ptr nonnull %3) #4
  call void @llvm.lifetime.start.p0(i64 8, ptr nonnull %4) #4
  call void @llvm.lifetime.start.p0(i64 8, ptr nonnull %5) #4
  store i64 -100, ptr %5, align 8, !tbaa !9
  %6 = call i32 (ptr, ptr, ...) @PyArg_ParseTuple(ptr noundef %1, ptr noundef nonnull @.str.14, ptr noundef nonnull %3, ptr noundef nonnull %4, ptr noundef nonnull %5) #4
  %.not = icmp eq i32 %6, 0
  br i1 %.not, label %16, label %7

7:                                                ; preds = %2
  %8 = load i64, ptr %5, align 8, !tbaa !9
  %9 = icmp eq i64 %8, -100
  br i1 %9, label %10, label %12

10:                                               ; preds = %7
  %11 = load i64, ptr %4, align 8, !tbaa !9
  store i64 %11, ptr %5, align 8, !tbaa !9
  br label %12

12:                                               ; preds = %10, %7
  %13 = phi i64 [ %11, %10 ], [ %8, %7 ]
  %14 = load ptr, ptr %3, align 8, !tbaa !11
  %15 = call ptr @PyBytes_FromStringAndSize(ptr noundef %14, i64 noundef %13) #4
  br label %16

16:                                               ; preds = %2, %12
  %.0 = phi ptr [ %15, %12 ], [ null, %2 ]
  call void @llvm.lifetime.end.p0(i64 8, ptr nonnull %5) #4
  call void @llvm.lifetime.end.p0(i64 8, ptr nonnull %4) #4
  call void @llvm.lifetime.end.p0(i64 8, ptr nonnull %3) #4
  ret ptr %.0
}